(lp0
I812
aI1196
aI1935
aI2605
aI3495
aI4268
aI5094
aI5748
aI6721
aI7279
aI8341
aI9851
aI10764
aI12246
aI13409
aI13943
aI14803
aI15434
aI15652
aI15889
aI16149
aI16404
aI16582
aI17698
aI18599
aI19589
aI20617
aI21715
aI22857
aI24065
aI24882
aI25823
aI26668
aI28387
aI29734
aI30741
aI31592
aI32289
aI33795
aI34538
aI35020
aI35996
aI36689
aI38001
aI39164
aI39915
aI40509
aI41906
aI43294
aI44166
aI45132
aI45740
aI46603
aI47775
aI48688
aI49414
aI49926
aI50864
aI52314
aI53205
aI54518
aI56077
aI57159
aI57738
aI58680
aI60097
aI61108
aI61886
aI63203
aI64343
aI65213
aI66177
aI67345
a.