(lp0
I0
aI2904
aI4502
aI7487
aI9394
aI12306
aI15343
aI18682
aI20916
aI21349
aI21752
aI24522
aI28234
aI30839
aI32688
aI36317
aI39483
aI43155
aI45194
aI46268
aI48799
aI51226
aI53920
aI56991
aI59391
aI61432
aI64618
aI66521
aI68420
aI71151
aI73496
aI76675
aI79204
aI82274
aI84622
aI87262
aI90285
aI92911
a.