(lp0
I0
aI954
aI1467
aI2387
aI3644
aI4123
aI4743
aI5630
aI6544
aI7613
aI8259
aI9338
aI9941
aI10791
aI11632
aI12496
aI13740
aI14885
aI15480
aI16493
aI16960
aI19008
aI19933
aI20915
aI21954
aI23058
aI23827
aI24738
aI25616
aI26866
aI27940
aI28939
aI29606
aI30038
aI31360
aI31931
aI33259
aI34616
aI35738
aI36567
aI37789
aI38612
aI39276
aI39738
aI40530
aI41779
aI42874
aI44397
aI45280
aI46086
aI46758
aI47723
aI48965
aI50219
aI51460
aI52354
aI53118
aI53802
aI54824
aI55447
aI56823
aI57577
aI58549
aI59948
aI61493
aI62485
aI63394
aI64539
aI65561
aI66853
aI67834
aI69743
aI70970
aI71895
aI72905
aI73203
aI74143
aI74878
aI75756
aI76649
aI77427
aI78351
a.