(lp0
I2905
aI4503
aI7488
aI9395
aI12307
aI15344
aI18683
aI20917
aI21350
aI21753
aI24523
aI28235
aI30840
aI32689
aI36318
aI39484
aI43156
aI45195
aI46269
aI48800
aI51227
aI53921
aI56992
aI59392
aI61433
aI64619
aI66522
aI68421
aI71152
aI73497
aI76676
aI79205
aI82275
aI84623
aI87263
aI90286
aI92912
a.