(lp0
I0
aI811
aI1195
aI1934
aI2604
aI3494
aI4267
aI5093
aI5747
aI6720
aI7278
aI8340
aI9850
aI10763
aI12245
aI13408
aI13942
aI14802
aI15433
aI15651
aI15888
aI16148
aI16403
aI16581
aI17697
aI18598
aI19588
aI20616
aI21714
aI22856
aI24064
aI24881
aI25822
aI26667
aI28386
aI29733
aI30740
aI31591
aI32288
aI33794
aI34537
aI35019
aI35995
aI36688
aI38000
aI39163
aI39914
aI40508
aI41905
aI43293
aI44165
aI45131
aI45739
aI46602
aI47774
aI48687
aI49413
aI49925
aI50863
aI52313
aI53204
aI54517
aI56076
aI57158
aI57737
aI58679
aI60096
aI61107
aI61885
aI63202
aI64342
aI65212
aI66176
aI67344
a.